target datalayout = "e-m:e-p270:32:32-p271:32:32-p272:64:64-i64:64-i128:128-f80:128-n8:16:32:64-S128"
target triple = "x86_64-pc-linux-gnu"

%struct._address = type { i32, i32, ptr, ptr }
%struct.iax_circuit_key = type { %struct._address, i32, i32, i32, [16 x i8] }

; Function Attrs: inlinehint nounwind null_pointer_is_valid sspstrong uwtable
define internal zeroext i1 @addresses_equal(ptr noundef %0, ptr noundef %1) #3 {
  %3 = alloca i1, align 1
  %4 = alloca ptr, align 8
  %5 = alloca ptr, align 8
  store ptr %0, ptr %4, align 8
  store ptr %1, ptr %5, align 8
  %6 = load ptr, ptr %4, align 8
  %7 = getelementptr inbounds nuw %struct._address, ptr %6, i32 0, i32 0
  %8 = load i32, ptr %7, align 8
  %9 = load ptr, ptr %5, align 8
  %10 = getelementptr inbounds nuw %struct._address, ptr %9, i32 0, i32 0
  %11 = load i32, ptr %10, align 8
  %12 = icmp eq i32 %8, %11
  br i1 %12, label %13, label %40

13:                                               ; preds = %2
  %14 = load ptr, ptr %4, align 8
  %15 = getelementptr inbounds nuw %struct._address, ptr %14, i32 0, i32 1
  %16 = load i32, ptr %15, align 4
  %17 = load ptr, ptr %5, align 8
  %18 = getelementptr inbounds nuw %struct._address, ptr %17, i32 0, i32 1
  %19 = load i32, ptr %18, align 4
  %20 = icmp eq i32 %16, %19
  br i1 %20, label %21, label %40

21:                                               ; preds = %13
  %22 = load ptr, ptr %4, align 8
  %23 = getelementptr inbounds nuw %struct._address, ptr %22, i32 0, i32 1
  %24 = load i32, ptr %23, align 4
  %25 = icmp eq i32 %24, 0
  br i1 %25, label %39, label %26

26:                                               ; preds = %21
  %27 = load ptr, ptr %4, align 8
  %28 = getelementptr inbounds nuw %struct._address, ptr %27, i32 0, i32 2
  %29 = load ptr, ptr %28, align 8
  %30 = load ptr, ptr %5, align 8
  %31 = getelementptr inbounds nuw %struct._address, ptr %30, i32 0, i32 2
  %32 = load ptr, ptr %31, align 8
  %33 = load ptr, ptr %4, align 8
  %34 = getelementptr inbounds nuw %struct._address, ptr %33, i32 0, i32 1
  %35 = load i32, ptr %34, align 4
  %36 = sext i32 %35 to i64
  %37 = call i32 @memcmp(ptr noundef %29, ptr noundef %32, i64 noundef %36) #17
  %38 = icmp eq i32 %37, 0
  br i1 %38, label %39, label %40

39:                                               ; preds = %26, %21
  store i1 true, ptr %3, align 1
  br label %41

40:                                               ; preds = %26, %13, %2
  store i1 false, ptr %3, align 1
  br label %41

41:                                               ; preds = %40, %39
  %42 = load i1, ptr %3, align 1
  ret i1 %42
}

; Function Attrs: null_pointer_is_valid sspstrong uwtable
define internal i32 @iax_circuit_equal(ptr noundef %0, ptr noundef %1) #0 {
  %3 = alloca ptr, align 8
  %4 = alloca ptr, align 8
  %5 = alloca ptr, align 8
  %6 = alloca ptr, align 8
  %7 = alloca i32, align 4
  store ptr %0, ptr %3, align 8
  store ptr %1, ptr %4, align 8
  call void @llvm.lifetime.start.p0(i64 8, ptr %5) #14
  %8 = load ptr, ptr %3, align 8
  store ptr %8, ptr %5, align 8
  call void @llvm.lifetime.start.p0(i64 8, ptr %6) #14
  %9 = load ptr, ptr %4, align 8
  store ptr %9, ptr %6, align 8
  call void @llvm.lifetime.start.p0(i64 4, ptr %7) #14
  %10 = load ptr, ptr %5, align 8
  %11 = getelementptr inbounds nuw %struct.iax_circuit_key, ptr %10, i32 0, i32 0
  %12 = load ptr, ptr %6, align 8
  %13 = getelementptr inbounds nuw %struct.iax_circuit_key, ptr %12, i32 0, i32 0
  %14 = call zeroext i1 @addresses_equal(ptr noundef %11, ptr noundef %13)
  br i1 %14, label %15, label %39

15:                                               ; preds = %2
  %16 = load ptr, ptr %5, align 8
  %17 = getelementptr inbounds nuw %struct.iax_circuit_key, ptr %16, i32 0, i32 1
  %18 = load i32, ptr %17, align 8
  %19 = load ptr, ptr %6, align 8
  %20 = getelementptr inbounds nuw %struct.iax_circuit_key, ptr %19, i32 0, i32 1
  %21 = load i32, ptr %20, align 8
  %22 = icmp eq i32 %18, %21
  br i1 %22, label %23, label %39

23:                                               ; preds = %15
  %24 = load ptr, ptr %5, align 8
  %25 = getelementptr inbounds nuw %struct.iax_circuit_key, ptr %24, i32 0, i32 2
  %26 = load i32, ptr %25, align 4
  %27 = load ptr, ptr %6, align 8
  %28 = getelementptr inbounds nuw %struct.iax_circuit_key, ptr %27, i32 0, i32 2
  %29 = load i32, ptr %28, align 4
  %30 = icmp eq i32 %26, %29
  br i1 %30, label %31, label %39

31:                                               ; preds = %23
  %32 = load ptr, ptr %5, align 8
  %33 = getelementptr inbounds nuw %struct.iax_circuit_key, ptr %32, i32 0, i32 3
  %34 = load i32, ptr %33, align 8
  %35 = load ptr, ptr %6, align 8
  %36 = getelementptr inbounds nuw %struct.iax_circuit_key, ptr %35, i32 0, i32 3
  %37 = load i32, ptr %36, align 8
  %38 = icmp eq i32 %34, %37
  br label %39

39:                                               ; preds = %31, %23, %15, %2
  %40 = phi i1 [ false, %23 ], [ false, %15 ], [ false, %2 ], [ %38, %31 ]
  %41 = zext i1 %40 to i32
  store i32 %41, ptr %7, align 4
  %42 = load i32, ptr %7, align 4
  call void @llvm.lifetime.end.p0(i64 4, ptr %7) #14
  call void @llvm.lifetime.end.p0(i64 8, ptr %6) #14
  call void @llvm.lifetime.end.p0(i64 8, ptr %5) #14
  ret i32 %42
}