; Function Attrs: mustprogress nofree nounwind null_pointer_is_valid sspstrong willreturn memory(read, inaccessiblemem: none) uwtable
define internal range(i32 0, 2) i32 @iax_circuit_equal(ptr noundef readonly captures(none) %0, ptr noundef readonly captures(none) %1) #10 {
  %3 = load i32, ptr %0, align 8
  %4 = load i32, ptr %1, align 8
  %5 = icmp eq i32 %3, %4
  br i1 %5, label %6, label %addresses_equal.exit

6:                                                ; preds = %2
  %7 = getelementptr inbounds nuw i8, ptr %0, i64 4
  %8 = load i32, ptr %7, align 4
  %9 = getelementptr inbounds nuw i8, ptr %1, i64 4
  %10 = load i32, ptr %9, align 4
  %11 = icmp eq i32 %8, %10
  br i1 %11, label %12, label %addresses_equal.exit

12:                                               ; preds = %6
  %13 = icmp eq i32 %8, 0
  br i1 %13, label %21, label %14

14:                                               ; preds = %12
  %15 = getelementptr inbounds nuw i8, ptr %0, i64 8
  %16 = load ptr, ptr %15, align 8
  %17 = getelementptr inbounds nuw i8, ptr %1, i64 8
  %18 = load ptr, ptr %17, align 8
  %19 = sext i32 %8 to i64
  %bcmp.i = tail call i32 @bcmp(ptr %16, ptr %18, i64 %19)
  %20 = icmp eq i32 %bcmp.i, 0
  br i1 %20, label %21, label %addresses_equal.exit

21:                                               ; preds = %14, %12
  %22 = getelementptr inbounds nuw i8, ptr %0, i64 24
  %23 = load i32, ptr %22, align 8
  %24 = getelementptr inbounds nuw i8, ptr %1, i64 24
  %25 = load i32, ptr %24, align 8
  %26 = icmp eq i32 %23, %25
  br i1 %26, label %27, label %addresses_equal.exit

27:                                               ; preds = %21
  %28 = getelementptr inbounds nuw i8, ptr %0, i64 28
  %29 = load i32, ptr %28, align 4
  %30 = getelementptr inbounds nuw i8, ptr %1, i64 28
  %31 = load i32, ptr %30, align 4
  %32 = icmp eq i32 %29, %31
  br i1 %32, label %33, label %addresses_equal.exit

33:                                               ; preds = %27
  %34 = getelementptr inbounds nuw i8, ptr %0, i64 32
  %35 = load i32, ptr %34, align 8
  %36 = getelementptr inbounds nuw i8, ptr %1, i64 32
  %37 = load i32, ptr %36, align 8
  %38 = icmp eq i32 %35, %37
  %39 = zext i1 %38 to i32
  br label %addresses_equal.exit

addresses_equal.exit:                             ; preds = %14, %6, %2, %33, %27, %21
  %40 = phi i32 [ 0, %27 ], [ 0, %21 ], [ %39, %33 ], [ 0, %2 ], [ 0, %6 ], [ 0, %14 ]
  ret i32 %40
}